; Function Attrs: mustprogress nofree norecurse nosync nounwind willreturn memory(none) uwtable
define internal fastcc i32 @assign_dim_array_result_type(i32 noundef %0, i32 noundef %1, i32 noundef %2, i8 noundef zeroext %3) unnamed_addr #10 {
  %5 = and i32 %2, 1023
  %.not = icmp eq i32 %5, 0
  br i1 %.not, label %41, label %6

6:                                                ; preds = %4
  %7 = shl i32 %2, 1
  %8 = and i32 %7, 2
  %spec.select = or i32 %8, %2
  %9 = icmp eq i8 %3, 0
  br i1 %9, label %10, label %17

10:                                               ; preds = %6
  %11 = and i32 %0, 12582912
  %12 = icmp ne i32 %11, 0
  %13 = and i32 %0, 538968071
  %14 = icmp eq i32 %13, 0
  %15 = and i1 %12, %14
  %16 = select i1 %15, i32 4194304, i32 6291456
  br label %41

17:                                               ; preds = %6
  %18 = and i32 %1, 572
  %.not34 = icmp eq i32 %18, 0
  br i1 %.not34, label %26, label %19

19:                                               ; preds = %17
  %20 = and i32 %0, 12582912
  %21 = icmp ne i32 %20, 0
  %22 = and i32 %0, 538968071
  %23 = icmp eq i32 %22, 0
  %24 = and i1 %21, %23
  %25 = select i1 %24, i32 4194304, i32 6291456
  br label %26

26:                                               ; preds = %19, %17
  %.2 = phi i32 [ %25, %19 ], [ 0, %17 ]
  %27 = and i32 %1, 64
  %.not37 = icmp eq i32 %27, 0
  br i1 %.not37, label %38, label %28

28:                                               ; preds = %26
  %29 = or disjoint i32 %.2, 8388608
  %.not38 = icmp eq i8 %3, 1
  br i1 %.not38, label %38, label %30

30:                                               ; preds = %28
  %31 = and i32 %0, 7
  %.not39 = icmp eq i32 %31, 0
  %spec.select47 = select i1 %.not39, i32 %29, i32 10485760
  %32 = and i32 %0, 12582912
  %33 = icmp ne i32 %32, 0
  %34 = and i32 %0, 538968064
  %.not40 = icmp eq i32 %34, 0
  %35 = and i1 %33, %.not40
  %36 = select i1 %35, i32 4194304, i32 6291456
  %37 = or i32 %spec.select47, %36
  br label %38

38:                                               ; preds = %28, %30, %26
  %.4 = phi i32 [ %37, %30 ], [ %29, %28 ], [ %.2, %26 ]
  %39 = and i32 %1, 3
  %.not41 = icmp eq i32 %39, 0
  %40 = or i32 %.4, 8388608
  %spec.select48 = select i1 %.not41, i32 %.4, i32 %40
  br label %41

41:                                               ; preds = %38, %10, %4
  %.131 = phi i32 [ %spec.select, %10 ], [ %2, %4 ], [ %spec.select, %38 ]
  %.5 = phi i32 [ %16, %10 ], [ 0, %4 ], [ %spec.select48, %38 ]
  %42 = and i32 %.5, 551550976
  %.not44 = icmp eq i32 %42, 0
  %43 = shl i32 %.131, 10
  %44 = and i32 %43, 1046528
  %45 = select i1 %.not44, i32 0, i32 %44
  %.5.masked = and i32 %.5, -536870913
  %46 = or i32 %45, %.5.masked
  ret i32 %46
}